; Function Attrs: mustprogress uwtable
define void @_ZNK2cv3LDA4saveERKNSt7__cxx1112basic_stringIcSt11char_traitsIcESaIcEEE(ptr noundef nonnull align 8 dereferenceable(200) %0, ptr noundef nonnull align 8 dereferenceable(32) %1) local_unnamed_addr #3 align 2 personality ptr @__gxx_personality_v0 {
  %3 = alloca %"class.cv::FileStorage", align 8
  %4 = alloca %"class.std::__cxx11::basic_string", align 8
  %5 = alloca %"class.std::__cxx11::basic_string", align 8
  %6 = alloca %"class.std::allocator", align 1
  call void @_ZNSt7__cxx1112basic_stringIcSt11char_traitsIcESaIcEEC1Ev(ptr noundef nonnull align 8 dereferenceable(32) %4) #19
  invoke void @_ZN2cv11FileStorageC1ERKNSt7__cxx1112basic_stringIcSt11char_traitsIcESaIcEEEiS8_(ptr noundef nonnull align 8 dereferenceable(64) %3, ptr noundef nonnull align 8 dereferenceable(32) %1, i32 noundef 1, ptr noundef nonnull align 8 dereferenceable(32) %4)
          to label %7 unwind label %13

7:                                                ; preds = %2
  call void @_ZNSt7__cxx1112basic_stringIcSt11char_traitsIcESaIcEED1Ev(ptr noundef nonnull align 8 dereferenceable(32) %4) #19
  %8 = invoke noundef zeroext i1 @_ZNK2cv11FileStorage8isOpenedEv(ptr noundef nonnull align 8 dereferenceable(64) %3)
          to label %9 unwind label %15

9:                                                ; preds = %7
  br i1 %8, label %22, label %10

10:                                               ; preds = %9
  call void @_ZNSaIcEC1Ev(ptr noundef nonnull align 1 dereferenceable(1) %6) #19
  invoke void @_ZNSt7__cxx1112basic_stringIcSt11char_traitsIcESaIcEEC1EPKcRKS3_(ptr noundef nonnull align 8 dereferenceable(32) %5, ptr noundef nonnull @.str.11, ptr noundef nonnull align 1 dereferenceable(1) %6)
          to label %11 unwind label %17

11:                                               ; preds = %10
  invoke void @_ZN2cv5errorEiRKNSt7__cxx1112basic_stringIcSt11char_traitsIcESaIcEEEPKcS9_i(i32 noundef -2, ptr noundef nonnull align 8 dereferenceable(32) %5, ptr noundef nonnull @__func__._ZNK2cv3LDA4saveERKNSt7__cxx1112basic_stringIcSt11char_traitsIcESaIcEEE, ptr noundef nonnull @.str.1, i32 noundef 1024) #18
          to label %12 unwind label %19

12:                                               ; preds = %11
  unreachable

13:                                               ; preds = %2
  %14 = landingpad { ptr, i32 }
          cleanup
  call void @_ZNSt7__cxx1112basic_stringIcSt11char_traitsIcESaIcEED1Ev(ptr noundef nonnull align 8 dereferenceable(32) %4) #19
  br label %26

15:                                               ; preds = %23, %22, %7
  %16 = landingpad { ptr, i32 }
          cleanup
  br label %25

17:                                               ; preds = %10
  %18 = landingpad { ptr, i32 }
          cleanup
  br label %21

19:                                               ; preds = %11
  %20 = landingpad { ptr, i32 }
          cleanup
  call void @_ZNSt7__cxx1112basic_stringIcSt11char_traitsIcESaIcEED1Ev(ptr noundef nonnull align 8 dereferenceable(32) %5) #19
  br label %21

21:                                               ; preds = %19, %17
  %.pn = phi { ptr, i32 } [ %20, %19 ], [ %18, %17 ]
  call void @_ZNSaIcED1Ev(ptr noundef nonnull align 1 dereferenceable(1) %6) #19
  br label %25

22:                                               ; preds = %9
  invoke void @_ZNK2cv3LDA4saveERNS_11FileStorageE(ptr noundef nonnull align 8 dereferenceable(200) %0, ptr noundef nonnull align 8 dereferenceable(64) %3)
          to label %23 unwind label %15

23:                                               ; preds = %22
  invoke void @_ZN2cv11FileStorage7releaseEv(ptr noundef nonnull align 8 dereferenceable(64) %3)
          to label %24 unwind label %15

24:                                               ; preds = %23
  call void @_ZN2cv11FileStorageD1Ev(ptr noundef nonnull align 8 dereferenceable(64) %3) #19
  ret void

25:                                               ; preds = %21, %15
  %.pn7 = phi { ptr, i32 } [ %16, %15 ], [ %.pn, %21 ]
  call void @_ZN2cv11FileStorageD1Ev(ptr noundef nonnull align 8 dereferenceable(64) %3) #19
  br label %26

26:                                               ; preds = %25, %13
  %.pn7.pn = phi { ptr, i32 } [ %.pn7, %25 ], [ %14, %13 ]
  resume { ptr, i32 } %.pn7.pn
}